target datalayout = "e-m:e-p270:32:32-p271:32:32-p272:64:64-i64:64-i128:128-f80:128-n8:16:32:64-S128"
target triple = "x86_64-pc-linux-gnu"

@.str = private unnamed_addr constant [32 x i8] c"../openssl/crypto/dh/dh_check.c\00", align 1
@__func__.DH_check_pub_key_ex = private unnamed_addr constant [20 x i8] c"DH_check_pub_key_ex\00", align 1

; Function Attrs: nounwind uwtable
define i32 @DH_check_pub_key_ex(ptr noundef %0, ptr noundef %1) #0 {
  %3 = alloca i32, align 4
  %4 = alloca ptr, align 8
  %5 = alloca ptr, align 8
  %6 = alloca i32, align 4
  %7 = alloca i32, align 4
  store ptr %0, ptr %4, align 8, !tbaa !3
  store ptr %1, ptr %5, align 8, !tbaa !12
  call void @llvm.lifetime.start.p0(i64 4, ptr %6) #3
  store i32 0, ptr %6, align 4, !tbaa !8
  %8 = load ptr, ptr %4, align 8, !tbaa !3
  %9 = load ptr, ptr %5, align 8, !tbaa !12
  %10 = call i32 @DH_check_pub_key(ptr noundef %8, ptr noundef %9, ptr noundef %6)
  %11 = icmp ne i32 %10, 0
  br i1 %11, label %13, label %12

12:                                               ; preds = %2
  store i32 0, ptr %3, align 4
  store i32 1, ptr %7, align 4
  br label %32

13:                                               ; preds = %2
  %14 = load i32, ptr %6, align 4, !tbaa !8
  %15 = and i32 %14, 1
  %16 = icmp ne i32 %15, 0
  br i1 %16, label %17, label %18

17:                                               ; preds = %13
  call void @ERR_new()
  call void @ERR_set_debug(ptr noundef @.str, i32 noundef 238, ptr noundef @__func__.DH_check_pub_key_ex)
  call void (i32, i32, ptr, ...) @ERR_set_error(i32 noundef 5, i32 noundef 124, ptr noundef null)
  br label %18

18:                                               ; preds = %17, %13
  %19 = load i32, ptr %6, align 4, !tbaa !8
  %20 = and i32 %19, 2
  %21 = icmp ne i32 %20, 0
  br i1 %21, label %22, label %23

22:                                               ; preds = %18
  call void @ERR_new()
  call void @ERR_set_debug(ptr noundef @.str, i32 noundef 240, ptr noundef @__func__.DH_check_pub_key_ex)
  call void (i32, i32, ptr, ...) @ERR_set_error(i32 noundef 5, i32 noundef 123, ptr noundef null)
  br label %23

23:                                               ; preds = %22, %18
  %24 = load i32, ptr %6, align 4, !tbaa !8
  %25 = and i32 %24, 4
  %26 = icmp ne i32 %25, 0
  br i1 %26, label %27, label %28

27:                                               ; preds = %23
  call void @ERR_new()
  call void @ERR_set_debug(ptr noundef @.str, i32 noundef 242, ptr noundef @__func__.DH_check_pub_key_ex)
  call void (i32, i32, ptr, ...) @ERR_set_error(i32 noundef 5, i32 noundef 122, ptr noundef null)
  br label %28

28:                                               ; preds = %27, %23
  %29 = load i32, ptr %6, align 4, !tbaa !8
  %30 = icmp eq i32 %29, 0
  %31 = zext i1 %30 to i32
  store i32 %31, ptr %3, align 4
  store i32 1, ptr %7, align 4
  br label %32

32:                                               ; preds = %28, %12
  call void @llvm.lifetime.end.p0(i64 4, ptr %6) #3
  %33 = load i32, ptr %3, align 4
  ret i32 %33
}