; Function Attrs: nounwind uwtable
define range(i32 0, 2) i32 @DH_check_pub_key_ex(ptr noundef %0, ptr noundef %1) local_unnamed_addr #0 {
  %3 = alloca i32, align 4
  call void @llvm.lifetime.start.p0(i64 4, ptr nonnull %3) #3
  store i32 0, ptr %3, align 4, !tbaa !3
  %4 = call i32 @DH_check_pub_key(ptr noundef %0, ptr noundef %1, ptr noundef nonnull %3)
  %.not = icmp eq i32 %4, 0
  br i1 %.not, label %21, label %5

5:                                                ; preds = %2
  %6 = load i32, ptr %3, align 4, !tbaa !3
  %7 = and i32 %6, 1
  %.not2 = icmp eq i32 %7, 0
  br i1 %.not2, label %9, label %8

8:                                                ; preds = %5
  call void @ERR_new() #3
  call void @ERR_set_debug(ptr noundef nonnull @.str, i32 noundef 238, ptr noundef nonnull @__func__.DH_check_pub_key_ex) #3
  call void (i32, i32, ptr, ...) @ERR_set_error(i32 noundef 5, i32 noundef 124, ptr noundef null) #3
  %.pre = load i32, ptr %3, align 4, !tbaa !3
  br label %9

9:                                                ; preds = %8, %5
  %10 = phi i32 [ %.pre, %8 ], [ %6, %5 ]
  %11 = and i32 %10, 2
  %.not3 = icmp eq i32 %11, 0
  br i1 %.not3, label %13, label %12

12:                                               ; preds = %9
  call void @ERR_new() #3
  call void @ERR_set_debug(ptr noundef nonnull @.str, i32 noundef 240, ptr noundef nonnull @__func__.DH_check_pub_key_ex) #3
  call void (i32, i32, ptr, ...) @ERR_set_error(i32 noundef 5, i32 noundef 123, ptr noundef null) #3
  %.pre5 = load i32, ptr %3, align 4, !tbaa !3
  br label %13

13:                                               ; preds = %12, %9
  %14 = phi i32 [ %.pre5, %12 ], [ %10, %9 ]
  %15 = and i32 %14, 4
  %.not4 = icmp eq i32 %15, 0
  br i1 %.not4, label %17, label %16

16:                                               ; preds = %13
  call void @ERR_new() #3
  call void @ERR_set_debug(ptr noundef nonnull @.str, i32 noundef 242, ptr noundef nonnull @__func__.DH_check_pub_key_ex) #3
  call void (i32, i32, ptr, ...) @ERR_set_error(i32 noundef 5, i32 noundef 122, ptr noundef null) #3
  %.pre6 = load i32, ptr %3, align 4, !tbaa !3
  br label %17

17:                                               ; preds = %16, %13
  %18 = phi i32 [ %.pre6, %16 ], [ %14, %13 ]
  %19 = icmp eq i32 %18, 0
  %20 = zext i1 %19 to i32
  br label %21

21:                                               ; preds = %2, %17
  %.0 = phi i32 [ %20, %17 ], [ 0, %2 ]
  call void @llvm.lifetime.end.p0(i64 4, ptr nonnull %3) #3
  ret i32 %.0
}